target datalayout = "e-m:e-p270:32:32-p271:32:32-p272:64:64-i64:64-i128:128-f80:128-n8:16:32:64-S128"
target triple = "x86_64-pc-linux-gnu"

%struct.CVodeMemRec = type { double, ptr, ptr, i32, i32, i32, double, double, ptr, i32, ptr, ptr, i32, ptr, i32, i32, double, double, ptr, i32, i32, i32, ptr, ptr, ptr, i32, i32, ptr, ptr, ptr, i32, double, i32, i32, double, ptr, ptr, i32, ptr, ptr, i32, i32, i32, double, ptr, ptr, [13 x ptr], ptr, ptr, ptr, ptr, ptr, [13 x ptr], ptr, ptr, ptr, ptr, [13 x ptr], ptr, ptr, ptr, ptr, ptr, i32, [13 x ptr], ptr, ptr, ptr, ptr, ptr, i32, double, i32, i32, i32, i32, i32, double, double, double, double, double, double, double, double, [14 x double], [6 x double], [13 x double], double, double, double, double, double, double, double, double, double, double, double, i32, ptr, i32, i64, i32, i32, i32, i32, i32, double, double, double, i64, i64, i64, i64, i64, i64, i64, i64, i64, ptr, i64, i64, ptr, i64, i64, i64, i64, i64, i64, i32, i64, i64, i64, i64, i64, i64, double, double, double, ptr, ptr, ptr, ptr, ptr, i32, i32, i64, double, double, double, i32, double, i32, i32, i32, i32, i32, i32, i32, i32, i32, i32, i32, i32, i32, i32, i32, i32, ptr, ptr, ptr, i32, [6 x [4 x double]], i32, i64, ptr, i32, ptr, ptr, double, double, double, ptr, ptr, ptr, double, double, i32, i32, i64, ptr, i32, i32, ptr, i32 }
%struct.CVSpilsMemRec = type { i32, i32, i32, double, double, double, double, i32, i64, i64, i64, i64, i64, i64, i64, ptr, ptr, ptr, ptr, ptr, ptr, ptr, ptr, ptr, i32, ptr, ptr, i64 }

; Function Attrs: nounwind uwtable
define i32 @CVSpilsPSolve(ptr noundef %0, ptr noundef %1, ptr noundef %2, i32 noundef %3) #0 {
  %5 = alloca ptr, align 8
  %6 = alloca ptr, align 8
  %7 = alloca ptr, align 8
  %8 = alloca i32, align 4
  %9 = alloca ptr, align 8
  %10 = alloca ptr, align 8
  %11 = alloca i32, align 4
  store ptr %0, ptr %5, align 8, !tbaa !3
  store ptr %1, ptr %6, align 8, !tbaa !48
  store ptr %2, ptr %7, align 8, !tbaa !48
  store i32 %3, ptr %8, align 4, !tbaa !7
  call void @llvm.lifetime.start.p0(i64 8, ptr %9) #5
  call void @llvm.lifetime.start.p0(i64 8, ptr %10) #5
  call void @llvm.lifetime.start.p0(i64 4, ptr %11) #5
  %12 = load ptr, ptr %5, align 8, !tbaa !3
  store ptr %12, ptr %9, align 8, !tbaa !9
  %13 = load ptr, ptr %9, align 8, !tbaa !9
  %14 = getelementptr inbounds nuw %struct.CVodeMemRec, ptr %13, i32 0, i32 144
  %15 = load ptr, ptr %14, align 8, !tbaa !11
  store ptr %15, ptr %10, align 8, !tbaa !22
  %16 = load ptr, ptr %10, align 8, !tbaa !22
  %17 = getelementptr inbounds nuw %struct.CVSpilsMemRec, ptr %16, i32 0, i32 21
  %18 = load ptr, ptr %17, align 8, !tbaa !32
  %19 = load ptr, ptr %9, align 8, !tbaa !9
  %20 = getelementptr inbounds nuw %struct.CVodeMemRec, ptr %19, i32 0, i32 83
  %21 = load double, ptr %20, align 8, !tbaa !49
  %22 = load ptr, ptr %10, align 8, !tbaa !22
  %23 = getelementptr inbounds nuw %struct.CVSpilsMemRec, ptr %22, i32 0, i32 17
  %24 = load ptr, ptr %23, align 8, !tbaa !50
  %25 = load ptr, ptr %10, align 8, !tbaa !22
  %26 = getelementptr inbounds nuw %struct.CVSpilsMemRec, ptr %25, i32 0, i32 18
  %27 = load ptr, ptr %26, align 8, !tbaa !51
  %28 = load ptr, ptr %6, align 8, !tbaa !48
  %29 = load ptr, ptr %7, align 8, !tbaa !48
  %30 = load ptr, ptr %9, align 8, !tbaa !9
  %31 = getelementptr inbounds nuw %struct.CVodeMemRec, ptr %30, i32 0, i32 89
  %32 = load double, ptr %31, align 8, !tbaa !54
  %33 = load ptr, ptr %10, align 8, !tbaa !22
  %34 = getelementptr inbounds nuw %struct.CVSpilsMemRec, ptr %33, i32 0, i32 6
  %35 = load double, ptr %34, align 8, !tbaa !55
  %36 = load i32, ptr %8, align 4, !tbaa !7
  %37 = load ptr, ptr %10, align 8, !tbaa !22
  %38 = getelementptr inbounds nuw %struct.CVSpilsMemRec, ptr %37, i32 0, i32 23
  %39 = load ptr, ptr %38, align 8, !tbaa !56
  %40 = load ptr, ptr %10, align 8, !tbaa !22
  %41 = getelementptr inbounds nuw %struct.CVSpilsMemRec, ptr %40, i32 0, i32 15
  %42 = load ptr, ptr %41, align 8, !tbaa !53
  %43 = call i32 %18(double noundef %21, ptr noundef %24, ptr noundef %27, ptr noundef %28, ptr noundef %29, double noundef %32, double noundef %35, i32 noundef %36, ptr noundef %39, ptr noundef %42)
  store i32 %43, ptr %11, align 4, !tbaa !7
  %44 = load i32, ptr %11, align 4, !tbaa !7
  call void @llvm.lifetime.end.p0(i64 4, ptr %11) #5
  call void @llvm.lifetime.end.p0(i64 8, ptr %10) #5
  call void @llvm.lifetime.end.p0(i64 8, ptr %9) #5
  ret i32 %44
}