; Function Attrs: nounwind uwtable
define i32 @CVSpilsPSolve(ptr noundef readonly captures(none) %0, ptr noundef %1, ptr noundef %2, i32 noundef %3) local_unnamed_addr #0 {
  %5 = getelementptr inbounds nuw i8, ptr %0, i64 1696
  %6 = load ptr, ptr %5, align 8, !tbaa !3
  %7 = getelementptr inbounds nuw i8, ptr %6, i64 160
  %8 = load ptr, ptr %7, align 8, !tbaa !25
  %9 = getelementptr inbounds nuw i8, ptr %0, i64 984
  %10 = load double, ptr %9, align 8, !tbaa !38
  %11 = getelementptr inbounds nuw i8, ptr %6, i64 128
  %12 = load ptr, ptr %11, align 8, !tbaa !39
  %13 = getelementptr inbounds nuw i8, ptr %6, i64 136
  %14 = load ptr, ptr %13, align 8, !tbaa !40
  %15 = getelementptr inbounds nuw i8, ptr %0, i64 1272
  %16 = load double, ptr %15, align 8, !tbaa !43
  %17 = getelementptr inbounds nuw i8, ptr %6, i64 40
  %18 = load double, ptr %17, align 8, !tbaa !44
  %19 = getelementptr inbounds nuw i8, ptr %6, i64 176
  %20 = load ptr, ptr %19, align 8, !tbaa !45
  %21 = getelementptr inbounds nuw i8, ptr %6, i64 112
  %22 = load ptr, ptr %21, align 8, !tbaa !42
  %23 = tail call i32 %8(double noundef %10, ptr noundef %12, ptr noundef %14, ptr noundef %1, ptr noundef %2, double noundef %16, double noundef %18, i32 noundef %3, ptr noundef %20, ptr noundef %22) #5
  ret i32 %23
}